; Function Attrs: mustprogress uwtable
define dso_local noundef nonnull align 8 dereferenceable(72) ptr @_ZN3net23QuicBufferedPacketStore14BufferedPacketaSEOS1_(ptr noundef nonnull returned align 8 dereferenceable(72) %this, ptr noundef nonnull align 8 dereferenceable(72) %other) local_unnamed_addr #0 align 2 personality ptr @__gxx_personality_v0 {
entry:
  %0 = load ptr, ptr %other, align 8
  store ptr null, ptr %other, align 8
  %1 = load ptr, ptr %this, align 8
  store ptr %0, ptr %this, align 8
  %tobool.not.i.i.i.i = icmp eq ptr %1, null
  br i1 %tobool.not.i.i.i.i, label %_ZNSt10unique_ptrIN3net18QuicReceivedPacketESt14default_deleteIS1_EEaSEOS4_.exit, label %_ZNKSt14default_deleteIN3net18QuicReceivedPacketEEclEPS1_.exit.i.i.i.i

_ZNKSt14default_deleteIN3net18QuicReceivedPacketEEclEPS1_.exit.i.i.i.i: ; preds = %entry
  %vtable.i.i.i.i.i = load ptr, ptr %1, align 8
  %vfn.i.i.i.i.i = getelementptr inbounds i8, ptr %vtable.i.i.i.i.i, i64 8
  %2 = load ptr, ptr %vfn.i.i.i.i.i, align 8
  tail call void %2(ptr noundef nonnull align 8 dereferenceable(45) %1) #17
  br label %_ZNSt10unique_ptrIN3net18QuicReceivedPacketESt14default_deleteIS1_EEaSEOS4_.exit

_ZNSt10unique_ptrIN3net18QuicReceivedPacketESt14default_deleteIS1_EEaSEOS4_.exit: ; preds = %entry, %_ZNKSt14default_deleteIN3net18QuicReceivedPacketEEclEPS1_.exit.i.i.i.i
  %server_address = getelementptr inbounds i8, ptr %this, i64 8
  %server_address3 = getelementptr inbounds i8, ptr %other, i64 8
  %call.i.i = tail call noundef nonnull align 8 dereferenceable(24) ptr @_ZNSt6vectorIhSaIhEEaSERKS1_(ptr noundef nonnull align 8 dereferenceable(24) %server_address, ptr noundef nonnull align 8 dereferenceable(24) %server_address3)
  %port_.i = getelementptr inbounds i8, ptr %other, i64 32
  %3 = load i16, ptr %port_.i, align 8
  %port_3.i = getelementptr inbounds i8, ptr %this, i64 32
  store i16 %3, ptr %port_3.i, align 8
  %client_address = getelementptr inbounds i8, ptr %this, i64 40
  %client_address5 = getelementptr inbounds i8, ptr %other, i64 40
  %call.i.i3 = tail call noundef nonnull align 8 dereferenceable(24) ptr @_ZNSt6vectorIhSaIhEEaSERKS1_(ptr noundef nonnull align 8 dereferenceable(24) %client_address, ptr noundef nonnull align 8 dereferenceable(24) %client_address5)
  %port_.i4 = getelementptr inbounds i8, ptr %other, i64 64
  %4 = load i16, ptr %port_.i4, align 8
  %port_3.i5 = getelementptr inbounds i8, ptr %this, i64 64
  store i16 %4, ptr %port_3.i5, align 8
  ret ptr %this
}